; Function Attrs: mustprogress uwtable
define noundef double @_ZNK8QuantLib14ZeroCouponSwap12fixedPaymentEv(ptr noundef nonnull align 8 dereferenceable(312) %this) local_unnamed_addr #9 align 2 {
entry:
  %call.i = tail call noundef nonnull align 8 dereferenceable(24) ptr @_ZNK8QuantLib4Swap3legEm(ptr noundef nonnull align 8 dereferenceable(256) %this, i64 noundef 0)
  %0 = load ptr, ptr %call.i, align 8, !tbaa !124
  %1 = load ptr, ptr %0, align 8, !tbaa !72
  %cmp.not.i = icmp eq ptr %1, null
  br i1 %cmp.not.i, label %cond.false.i, label %_ZNK5boost10shared_ptrIN8QuantLib8CashFlowEEptEv.exit, !prof !83

cond.false.i:                                     ; preds = %entry
  tail call void @_ZN5boost16assertion_failedEPKcS1_S1_l(ptr noundef nonnull @.str.15, ptr noundef nonnull @__PRETTY_FUNCTION__._ZNK5boost10shared_ptrIN8QuantLib8CashFlowEEptEv, ptr noundef nonnull @.str.16, i64 noundef 784)
  %.pre.i = load ptr, ptr %0, align 8, !tbaa !72
  br label %_ZNK5boost10shared_ptrIN8QuantLib8CashFlowEEptEv.exit

_ZNK5boost10shared_ptrIN8QuantLib8CashFlowEEptEv.exit: ; preds = %entry, %cond.false.i
  %2 = phi ptr [ %1, %entry ], [ %.pre.i, %cond.false.i ]
  %vtable = load ptr, ptr %2, align 8, !tbaa !33
  %vfn = getelementptr inbounds i8, ptr %vtable, i64 48
  %3 = load ptr, ptr %vfn, align 8
  %call4 = tail call noundef double %3(ptr noundef nonnull align 8 dereferenceable(20) %2)
  ret double %call4
}